(iClientForm
HTMLForm
p1
(dp2
S'_request_class'
p3
curllib2
Request
p4
sS'name'
p5
S'sendtxtform'
p6
sS'controls'
p7
(lp8
(iClientForm
SubmitControl
p9
(dp10
S'disabled'
p11
I00
sg5
S'compose.x'
p12
sS'_clicked'
p13
I00
sS'_value'
p14
S'Compose'
p15
sS'readonly'
p16
I01
sS'attrs'
p17
(dp18
S'style'
p19
S'font-family:verdana;'
p20
sS'type'
p21
S'submit'
p22
sS'name'
p23
g12
sS'value'
p24
g15
sS'title'
p25
S'Compose'
p26
ssg21
S'submit'
p27
sS'id'
p28
Nsba(iClientForm
SubmitControl
p29
(dp30
g11
I00
sg5
S'purchase.x'
p31
sg13
I00
sg14
S'Purchase'
p32
sg16
I01
sg17
(dp33
S'style'
p34
S'font-family:verdana;'
p35
sg21
S'submit'
p36
sS'name'
p37
g31
sS'value'
p38
g32
sS'title'
p39
S'Purchase'
p40
ssg21
S'submit'
p41
sg28
Nsba(iClientForm
SubmitControl
p42
(dp43
g11
I00
sg5
S'inbox.x'
p44
sg13
I00
sg14
S'Inbox'
p45
sg16
I01
sg17
(dp46
S'style'
p47
S'font-family:verdana;'
p48
sg21
S'submit'
p49
sS'name'
p50
g44
sS'value'
p51
g45
sS'title'
p52
S'Inbox'
p53
ssg21
S'submit'
p54
sg28
Nsba(iClientForm
SubmitControl
p55
(dp56
g11
I00
sg5
S'sent.x'
p57
sg13
I00
sg14
S'Sent'
p58
sg16
I01
sg17
(dp59
S'style'
p60
S'font-family:verdana;'
p61
sg21
S'submit'
p62
sS'name'
p63
g57
sS'value'
p64
g58
sS'title'
p65
S'Sent'
p66
ssg21
S'submit'
p67
sg28
Nsba(iClientForm
SubmitControl
p68
(dp69
g11
I00
sg5
S'template.x'
p70
sg13
I00
sg14
S'Template'
p71
sg16
I01
sg17
(dp72
S'style'
p73
S'font-family:verdana;'
p74
sg21
S'submit'
p75
sS'name'
p76
g70
sS'value'
p77
g71
sS'title'
p78
S'Template'
p79
ssg21
S'submit'
p80
sg28
Nsba(iClientForm
SubmitControl
p81
(dp82
g11
I00
sg5
S'dictionary.x'
p83
sg13
I00
sg14
S'Dictionary'
p84
sg16
I01
sg17
(dp85
S'style'
p86
S'font-family:verdana;'
p87
sg21
S'submit'
p88
sS'name'
p89
g83
sS'value'
p90
g84
sS'title'
p91
S'Dictionary'
p92
ssg21
S'submit'
p93
sg28
Nsba(iClientForm
SubmitControl
p94
(dp95
g11
I00
sg5
S'include.faqs.x'
p96
sg13
I00
sg14
S'FAQs'
p97
sg16
I01
sg17
(dp98
S'style'
p99
S'font-family:verdana;'
p100
sg21
S'submit'
p101
sS'name'
p102
g96
sS'value'
p103
g97
sS'title'
p104
S'FAQs'
p105
ssg21
S'submit'
p106
sg28
Nsba(iClientForm
TextControl
p107
(dp108
g11
I00
sg5
S'compose.to'
p109
sg13
I00
sg14
S''
sg16
I00
sg17
(dp110
S'style'
p111
S'overflow:hidden'
p112
sg21
S'text'
p113
sS'name'
p114
g109
sS'value'
p115
S''
sS'id'
p116
S'compose.to'
p117
ssg21
S'text'
p118
sg28
g117
sba(iClientForm
SubmitControl
p119
(dp120
g11
I00
sg5
S'add.x'
p121
sg13
I00
sg14
S'address book'
p122
sg16
I01
sg17
(dp123
S'name'
p124
g121
sS'title'
p125
S'address book'
p126
sS'styleid'
p127
S'add'
p128
sg21
S'submit'
p129
sS'class'
p130
S'imgLeft smArrowRight'
p131
sS'value'
p132
g122
ssg21
S'submit'
p133
sg28
Nsba(iClientForm
SubmitControl
p134
(dp135
g11
I00
sg5
S'template.x'
p136
sg13
I00
sg14
S'template'
p137
sg16
I01
sg17
(dp138
S'title'
p139
S'template'
p140
sg21
S'submit'
p141
sS'name'
p142
g136
sS'value'
p143
g137
sS'class'
p144
S'imgLeft smArrowRight'
p145
ssg21
S'submit'
p146
sg28
Nsba(iClientForm
SubmitControl
p147
(dp148
g11
I00
sg5
S'dictionary.x'
p149
sg13
I00
sg14
S'dictionary'
p150
sg16
I01
sg17
(dp151
S'title'
p152
S'dictionary'
p153
sg21
S'submit'
p154
sS'name'
p155
g149
sS'value'
p156
g150
sS'class'
p157
S'imgLeft smArrowRight'
p158
ssg21
S'submit'
p159
sg28
Nsba(iClientForm
TextareaControl
p160
(dp161
g11
I00
sg5
S'compose.message'
p162
sg13
I00
sg14
S''
sg16
I00
sg17
(dp163
S'onblur'
p164
S'number();'
p165
sS'rows'
p166
S'5'
sS'name'
p167
g162
sS'title'
p168
S'Type your message here'
p169
sS'cols'
p170
S'35'
p171
sS'onkeyup'
p172
S'return number();'
p173
sS'onfocus'
p174
S'number();'
p175
sS'id'
p176
S'compose.message'
p177
ssg21
S'textarea'
p178
sg28
g177
sba(iClientForm
TextControl
p179
(dp180
g11
I00
sg5
S'chars'
p181
sg13
I00
sg14
S''
sg16
I00
sg17
(dp182
S'class'
p183
S'narrowTxtInput2'
p184
sg21
S'text'
p185
sS'name'
p186
g181
sS'value'
p187
S''
sS'id'
p188
S'chars'
p189
ssg21
S'text'
p190
sg28
g189
sba(iClientForm
TextControl
p191
(dp192
g11
I00
sg5
S'total'
p193
sg13
I00
sg14
S''
sg16
I00
sg17
(dp194
S'class'
p195
S'narrowTxtInput2'
p196
sg21
S'text'
p197
sS'name'
p198
g193
sS'value'
p199
S''
sS'id'
p200
S'total'
p201
ssg21
S'text'
p202
sg28
g201
sba(iClientForm
RadioControl
p203
(dp204
g11
I00
sS'_menu'
p205
(lp206
S'free'
p207
aS'paid'
p208
asS'multiple'
p209
I00
sg5
S'compose.paymentType'
p210
sg13
I00
sS'_selected'
p211
g208
sg14
g207
sS'_value_is_set'
p212
I01
sg16
I00
sS'_attrs_list'
p213
(lp214
(dp215
g21
S'radio'
p216
sS'name'
p217
g210
sS'value'
p218
g207
sS'id'
p219
S'compose.paymentType'
p220
sa(dp221
g21
S'radio'
p222
sS'checked'
p223
S'checked'
p224
sS'name'
p225
S'compose.paymentType'
p226
sS'value'
p227
g208
sS'id'
p228
S'compose.paymentType'
p229
sasS'_disabled_list'
p230
(lp231
I00
aI00
asg21
S'radio'
p232
sg28
g220
sS'_select_default'
p233
I00
sS'_attrs'
p234
g215
sba(iClientForm
SubmitControl
p235
(dp236
g11
I00
sg5
S'execute'
p237
sg13
I00
sg14
S'send'
p238
sg16
I01
sg17
(dp239
S'name'
p240
g237
sS'title'
p241
S'Send Txt message'
p242
sg21
S'submit'
p243
sS'class'
p244
S'imgLeft arrowRight'
p245
sS'value'
p246
g238
sS'id'
p247
S'send'
p248
ssg21
S'submit'
p249
sg28
g248
sba(iClientForm
SubmitControl
p250
(dp251
g11
I00
sg5
S'execute'
p252
sg13
I00
sg14
S'cancel'
p253
sg16
I01
sg17
(dp254
S'name'
p255
g252
sS'title'
p256
S'Clear fields'
p257
sg21
S'submit'
p258
sS'class'
p259
S'imgLeft cross'
p260
sS'value'
p261
g253
sS'id'
p262
S'cancel'
p263
ssg21
S'submit'
p264
sg28
g263
sbasg17
(dp265
S'action'
p266
S'/sendtxt/action/compose'
p267
sS'method'
p268
S'post'
p269
sS'name'
p270
g6
ssS'action'
p271
S'http://sendtxt.o2.co.uk/sendtxt/action/compose'
p272
sS'method'
p273
S'POST'
p274
sS'enctype'
p275
S'application/x-www-form-urlencoded'
p276
sb.